target datalayout = "e-m:e-p270:32:32-p271:32:32-p272:64:64-i64:64-i128:128-f80:128-n8:16:32:64-S128"
target triple = "x86_64-pc-linux-gnu"

%struct.Fraig_NodeVecStruct_t_ = type { i32, i32, ptr }

; Function Attrs: nounwind uwtable
define void @Fraig_NodeVecSortByNumber(ptr noundef %0) #0 {
  %2 = alloca ptr, align 8
  store ptr %0, ptr %2, align 8, !tbaa !7
  %3 = load ptr, ptr %2, align 8, !tbaa !7
  %4 = getelementptr inbounds nuw %struct.Fraig_NodeVecStruct_t_, ptr %3, i32 0, i32 2
  %5 = load ptr, ptr %4, align 8, !tbaa !14
  %6 = load ptr, ptr %2, align 8, !tbaa !7
  %7 = getelementptr inbounds nuw %struct.Fraig_NodeVecStruct_t_, ptr %6, i32 0, i32 1
  %8 = load i32, ptr %7, align 4, !tbaa !10
  %9 = sext i32 %8 to i64
  call void @qsort(ptr noundef %5, i64 noundef %9, i64 noundef 8, ptr noundef @Fraig_NodeVecCompareNumbers)
  ret void
}