; Function Attrs: nofree nounwind uwtable
define void @Fraig_NodeVecSortByNumber(ptr noundef readonly captures(none) %0) local_unnamed_addr #14 {
  %2 = getelementptr inbounds nuw i8, ptr %0, i64 8
  %3 = load ptr, ptr %2, align 8, !tbaa !11
  %4 = getelementptr inbounds nuw i8, ptr %0, i64 4
  %5 = load i32, ptr %4, align 4, !tbaa !3
  %6 = sext i32 %5 to i64
  tail call void @qsort(ptr noundef %3, i64 noundef %6, i64 noundef 8, ptr noundef nonnull @Fraig_NodeVecCompareNumbers) #18
  ret void
}